target datalayout = "e-m:e-p270:32:32-p271:32:32-p272:64:64-i64:64-i128:128-f80:128-n8:16:32:64-S128"
target triple = "x86_64-pc-linux-gnu"

%"struct.faiss::IndexHNSW" = type <{ %"struct.faiss::Index.base", [4 x i8], %"struct.faiss::HNSW", i8, [7 x i8], ptr, i8, i8, [6 x i8] }>
%"struct.faiss::Index.base" = type <{ ptr, i32, [4 x i8], i64, i8, i8, [2 x i8], i32, float }>
%"struct.faiss::HNSW" = type <{ %"class.std::vector", %"class.std::vector.0", %"class.std::vector.0", %"class.std::vector.5", %"class.std::vector.0", i32, [4 x i8], %"struct.faiss::RandomGenerator", i32, i32, i32, i8, i8, [2 x i8] }>
%"class.std::vector" = type { %"struct.std::_Vector_base" }
%"struct.std::_Vector_base" = type { %"struct.std::_Vector_base<double, std::allocator<double>>::_Vector_impl" }
%"struct.std::_Vector_base<double, std::allocator<double>>::_Vector_impl" = type { %"struct.std::_Vector_base<double, std::allocator<double>>::_Vector_impl_data" }
%"struct.std::_Vector_base<double, std::allocator<double>>::_Vector_impl_data" = type { ptr, ptr, ptr }
%"class.std::vector.5" = type { %"struct.std::_Vector_base.6" }
%"struct.std::_Vector_base.6" = type { %"struct.std::_Vector_base<unsigned long, std::allocator<unsigned long>>::_Vector_impl" }
%"struct.std::_Vector_base<unsigned long, std::allocator<unsigned long>>::_Vector_impl" = type { %"struct.std::_Vector_base<unsigned long, std::allocator<unsigned long>>::_Vector_impl_data" }
%"struct.std::_Vector_base<unsigned long, std::allocator<unsigned long>>::_Vector_impl_data" = type { ptr, ptr, ptr }
%"class.std::vector.0" = type { %"struct.std::_Vector_base.1" }
%"struct.std::_Vector_base.1" = type { %"struct.std::_Vector_base<int, std::allocator<int>>::_Vector_impl" }
%"struct.std::_Vector_base<int, std::allocator<int>>::_Vector_impl" = type { %"struct.std::_Vector_base<int, std::allocator<int>>::_Vector_impl_data" }
%"struct.std::_Vector_base<int, std::allocator<int>>::_Vector_impl_data" = type { ptr, ptr, ptr }
%"struct.faiss::RandomGenerator" = type { %"class.std::mersenne_twister_engine" }
%"class.std::mersenne_twister_engine" = type { [624 x i64], i64 }
%"struct.faiss::Index" = type <{ ptr, i32, [4 x i8], i64, i8, i8, [2 x i8], i32, float, [4 x i8] }>
%"struct.faiss::IndexFlatCodes" = type { %"struct.faiss::Index.base", i64, %"class.std::vector.13" }
%"class.std::vector.13" = type { %"struct.std::_Vector_base.14" }
%"struct.std::_Vector_base.14" = type { %"struct.std::_Vector_base<unsigned char, std::allocator<unsigned char>>::_Vector_impl" }
%"struct.std::_Vector_base<unsigned char, std::allocator<unsigned char>>::_Vector_impl" = type { %"struct.std::_Vector_base<unsigned char, std::allocator<unsigned char>>::_Vector_impl_data" }
%"struct.std::_Vector_base<unsigned char, std::allocator<unsigned char>>::_Vector_impl_data" = type { ptr, ptr, ptr }
%"class.std::vector.48" = type { %"struct.std::_Vector_base.49" }
%"struct.std::_Vector_base.49" = type { %"struct.std::_Vector_base<float, std::allocator<float>>::_Vector_impl" }
%"struct.std::_Vector_base<float, std::allocator<float>>::_Vector_impl" = type { %"struct.std::_Vector_base<float, std::allocator<float>>::_Vector_impl_data" }
%"struct.std::_Vector_base<float, std::allocator<float>>::_Vector_impl_data" = type { ptr, ptr, ptr }
%"struct.faiss::IndexFlatL2" = type { %"struct.faiss::IndexFlat", %"class.std::vector.48" }
%"struct.faiss::IndexFlat" = type { %"struct.faiss::IndexFlatCodes" }

@_ZTVN5faiss11IndexFlatL2E = external unnamed_addr constant { [26 x ptr] }, align 8

; Function Attrs: mustprogress nounwind uwtable
define linkonce_odr void @_ZNSt15__new_allocatorIfEC2Ev(ptr noundef nonnull align 1 dereferenceable(1) %0) unnamed_addr #0 comdat align 2 {
  %2 = alloca ptr, align 8
  store ptr %0, ptr %2, align 8, !tbaa !435
  ret void
}

; Function Attrs: mustprogress nounwind uwtable
define linkonce_odr void @_ZNSt12_Vector_baseIfSaIfEE17_Vector_impl_dataC2Ev(ptr noundef nonnull align 8 dereferenceable(24) %0) unnamed_addr #0 comdat align 2 {
  %2 = alloca ptr, align 8
  store ptr %0, ptr %2, align 8, !tbaa !445
  %3 = load ptr, ptr %2, align 8
  %4 = getelementptr inbounds nuw %"struct.std::_Vector_base<float, std::allocator<float>>::_Vector_impl_data", ptr %3, i32 0, i32 0
  store ptr null, ptr %4, align 8, !tbaa !437
  %5 = getelementptr inbounds nuw %"struct.std::_Vector_base<float, std::allocator<float>>::_Vector_impl_data", ptr %3, i32 0, i32 1
  store ptr null, ptr %5, align 8, !tbaa !439
  %6 = getelementptr inbounds nuw %"struct.std::_Vector_base<float, std::allocator<float>>::_Vector_impl_data", ptr %3, i32 0, i32 2
  store ptr null, ptr %6, align 8, !tbaa !442
  ret void
}

; Function Attrs: mustprogress nounwind uwtable
define linkonce_odr void @_ZNSaIfEC2Ev(ptr noundef nonnull align 1 dereferenceable(1) %0) unnamed_addr #0 comdat align 2 {
  %2 = alloca ptr, align 8
  store ptr %0, ptr %2, align 8, !tbaa !431
  %3 = load ptr, ptr %2, align 8
  call void @_ZNSt15__new_allocatorIfEC2Ev(ptr noundef nonnull align 1 dereferenceable(1) %3) #6
  ret void
}

; Function Attrs: mustprogress nounwind uwtable
define linkonce_odr void @_ZNSt12_Vector_baseIfSaIfEE12_Vector_implC2Ev(ptr noundef nonnull align 8 dereferenceable(24) %0) unnamed_addr #0 comdat align 2 {
  %2 = alloca ptr, align 8
  store ptr %0, ptr %2, align 8, !tbaa !443
  %3 = load ptr, ptr %2, align 8
  call void @_ZNSaIfEC2Ev(ptr noundef nonnull align 1 dereferenceable(1) %3) #6
  call void @_ZNSt12_Vector_baseIfSaIfEE17_Vector_impl_dataC2Ev(ptr noundef nonnull align 8 dereferenceable(24) %3) #6
  ret void
}

; Function Attrs: mustprogress nounwind uwtable
define linkonce_odr void @_ZNSt12_Vector_baseIfSaIfEEC2Ev(ptr noundef nonnull align 8 dereferenceable(24) %0) unnamed_addr #0 comdat align 2 {
  %2 = alloca ptr, align 8
  store ptr %0, ptr %2, align 8, !tbaa !440
  %3 = load ptr, ptr %2, align 8
  %4 = getelementptr inbounds nuw %"struct.std::_Vector_base.49", ptr %3, i32 0, i32 0
  call void @_ZNSt12_Vector_baseIfSaIfEE12_Vector_implC2Ev(ptr noundef nonnull align 8 dereferenceable(24) %4) #6
  ret void
}

; Function Attrs: mustprogress nounwind uwtable
define linkonce_odr void @_ZN5faiss5IndexC2ElNS_10MetricTypeE(ptr noundef nonnull align 8 dereferenceable(36) %0, i64 noundef %1, i32 noundef %2) unnamed_addr #0 comdat align 2 {
  %4 = alloca ptr, align 8
  %5 = alloca i64, align 8
  %6 = alloca i32, align 4
  store ptr %0, ptr %4, align 8, !tbaa !88
  store i64 %1, ptr %5, align 8, !tbaa !9
  store i32 %2, ptr %6, align 4, !tbaa !85
  %7 = load ptr, ptr %4, align 8
  store ptr getelementptr inbounds inrange(-16, 184) ({ [25 x ptr] }, ptr @_ZTVN5faiss5IndexE, i32 0, i32 0, i32 2), ptr %7, align 8, !tbaa !40
  %8 = getelementptr inbounds nuw %"struct.faiss::Index", ptr %7, i32 0, i32 1
  %9 = load i64, ptr %5, align 8, !tbaa !9
  %10 = trunc i64 %9 to i32
  store i32 %10, ptr %8, align 8, !tbaa !82
  %11 = getelementptr inbounds nuw %"struct.faiss::Index", ptr %7, i32 0, i32 3
  store i64 0, ptr %11, align 8, !tbaa !45
  %12 = getelementptr inbounds nuw %"struct.faiss::Index", ptr %7, i32 0, i32 4
  store i8 0, ptr %12, align 8, !tbaa !46
  %13 = getelementptr inbounds nuw %"struct.faiss::Index", ptr %7, i32 0, i32 5
  store i8 1, ptr %13, align 1, !tbaa !42
  %14 = getelementptr inbounds nuw %"struct.faiss::Index", ptr %7, i32 0, i32 7
  %15 = load i32, ptr %6, align 4, !tbaa !85
  store i32 %15, ptr %14, align 4, !tbaa !50
  %16 = getelementptr inbounds nuw %"struct.faiss::Index", ptr %7, i32 0, i32 8
  store float 0.000000e+00, ptr %16, align 8, !tbaa !89
  ret void
}

; Function Attrs: mustprogress nounwind uwtable
define linkonce_odr void @_ZNSt6vectorIfSaIfEEC2Ev(ptr noundef nonnull align 8 dereferenceable(24) %0) unnamed_addr #0 comdat align 2 {
  %2 = alloca ptr, align 8
  store ptr %0, ptr %2, align 8, !tbaa !433
  %3 = load ptr, ptr %2, align 8
  call void @_ZNSt12_Vector_baseIfSaIfEEC2Ev(ptr noundef nonnull align 8 dereferenceable(24) %3) #6
  ret void
}

; Function Attrs: mustprogress uwtable
define void @_ZN5faiss9IndexHNSWC2EPNS_5IndexEi(ptr noundef nonnull align 8 dereferenceable(5202) %0, ptr noundef %1, i32 noundef %2) unnamed_addr #1 align 2 personality ptr @__gxx_personality_v0 {
  %4 = alloca ptr, align 8
  %5 = alloca ptr, align 8
  %6 = alloca i32, align 4
  %7 = alloca ptr, align 8
  %8 = alloca i32, align 4
  store ptr %0, ptr %4, align 8, !tbaa !4
  store ptr %1, ptr %5, align 8, !tbaa !88
  store i32 %2, ptr %6, align 4, !tbaa !39
  %9 = load ptr, ptr %4, align 8
  %10 = load ptr, ptr %5, align 8, !tbaa !88
  %11 = getelementptr inbounds nuw %"struct.faiss::Index", ptr %10, i32 0, i32 1
  %12 = load i32, ptr %11, align 8, !tbaa !82
  %13 = sext i32 %12 to i64
  %14 = load ptr, ptr %5, align 8, !tbaa !88
  %15 = getelementptr inbounds nuw %"struct.faiss::Index", ptr %14, i32 0, i32 7
  %16 = load i32, ptr %15, align 4, !tbaa !50
  call void @_ZN5faiss5IndexC2ElNS_10MetricTypeE(ptr noundef nonnull align 8 dereferenceable(36) %9, i64 noundef %13, i32 noundef %16)
  store ptr getelementptr inbounds inrange(-16, 184) ({ [25 x ptr] }, ptr @_ZTVN5faiss9IndexHNSWE, i32 0, i32 0, i32 2), ptr %9, align 8, !tbaa !40
  %17 = getelementptr inbounds nuw %"struct.faiss::IndexHNSW", ptr %9, i32 0, i32 2
  %18 = load i32, ptr %6, align 4, !tbaa !39
  invoke void @_ZN5faiss4HNSWC1Ei(ptr noundef nonnull align 8 dereferenceable(5142) %17, i32 noundef %18)
          to label %19 unwind label %25

19:                                               ; preds = %3
  %20 = getelementptr inbounds nuw %"struct.faiss::IndexHNSW", ptr %9, i32 0, i32 3
  store i8 0, ptr %20, align 8, !tbaa !77
  %21 = getelementptr inbounds nuw %"struct.faiss::IndexHNSW", ptr %9, i32 0, i32 5
  %22 = load ptr, ptr %5, align 8, !tbaa !88
  store ptr %22, ptr %21, align 8, !tbaa !13
  %23 = getelementptr inbounds nuw %"struct.faiss::IndexHNSW", ptr %9, i32 0, i32 6
  store i8 1, ptr %23, align 8, !tbaa !86
  %24 = getelementptr inbounds nuw %"struct.faiss::IndexHNSW", ptr %9, i32 0, i32 7
  store i8 0, ptr %24, align 1, !tbaa !87
  ret void

25:                                               ; preds = %3
  %26 = landingpad { ptr, i32 }
          cleanup
  %27 = extractvalue { ptr, i32 } %26, 0
  store ptr %27, ptr %7, align 8
  %28 = extractvalue { ptr, i32 } %26, 1
  store i32 %28, ptr %8, align 4
  call void @_ZN5faiss5IndexD2Ev(ptr noundef nonnull align 8 dereferenceable(36) %9) #6
  br label %29

29:                                               ; preds = %25
  %30 = load ptr, ptr %7, align 8
  %31 = load i32, ptr %8, align 4
  %32 = insertvalue { ptr, i32 } poison, ptr %30, 0
  %33 = insertvalue { ptr, i32 } %32, i32 %31, 1
  resume { ptr, i32 } %33
}

; Function Attrs: mustprogress uwtable
define linkonce_odr void @_ZN5faiss11IndexFlatL2C2El(ptr noundef nonnull align 8 dereferenceable(96) %0, i64 noundef %1) unnamed_addr #1 comdat align 2 {
  %3 = alloca ptr, align 8
  %4 = alloca i64, align 8
  store ptr %0, ptr %3, align 8, !tbaa !491
  store i64 %1, ptr %4, align 8, !tbaa !9
  %5 = load ptr, ptr %3, align 8
  %6 = load i64, ptr %4, align 8, !tbaa !9
  call void @_ZN5faiss9IndexFlatC2ElNS_10MetricTypeE(ptr noundef nonnull align 8 dereferenceable(72) %5, i64 noundef %6, i32 noundef 1)
  store ptr getelementptr inbounds inrange(-16, 192) ({ [26 x ptr] }, ptr @_ZTVN5faiss11IndexFlatL2E, i32 0, i32 0, i32 2), ptr %5, align 8, !tbaa !40
  %7 = getelementptr inbounds nuw %"struct.faiss::IndexFlatL2", ptr %5, i32 0, i32 1
  call void @_ZNSt6vectorIfSaIfEEC2Ev(ptr noundef nonnull align 8 dereferenceable(24) %7) #6
  ret void
}

; Function Attrs: mustprogress uwtable
define void @_ZN5faiss13IndexHNSWFlatC2EiiNS_10MetricTypeE(ptr noundef nonnull align 8 dereferenceable(5202) %0, i32 noundef %1, i32 noundef %2, i32 noundef %3) unnamed_addr #1 align 2 personality ptr @__gxx_personality_v0 {
  %5 = alloca ptr, align 8
  %6 = alloca i32, align 4
  %7 = alloca i32, align 4
  %8 = alloca i32, align 4
  %9 = alloca ptr, align 8
  %10 = alloca i1, align 1
  %11 = alloca ptr, align 8
  %12 = alloca i32, align 4
  %13 = alloca ptr, align 8
  %14 = alloca i1, align 1
  store ptr %0, ptr %5, align 8, !tbaa !489
  store i32 %1, ptr %6, align 4, !tbaa !39
  store i32 %2, ptr %7, align 4, !tbaa !39
  store i32 %3, ptr %8, align 4, !tbaa !85
  %15 = load ptr, ptr %5, align 8
  %16 = load i32, ptr %8, align 4, !tbaa !85
  %17 = icmp eq i32 %16, 1
  store i1 false, ptr %10, align 1
  store i1 false, ptr %14, align 1
  br i1 %17, label %18, label %23

18:                                               ; preds = %4
  %19 = call noalias noundef nonnull ptr @_Znwm(i64 noundef 96) #28
  store ptr %19, ptr %9, align 8
  store i1 true, ptr %10, align 1
  %20 = load i32, ptr %6, align 4, !tbaa !39
  %21 = sext i32 %20 to i64
  invoke void @_ZN5faiss11IndexFlatL2C2El(ptr noundef nonnull align 8 dereferenceable(96) %19, i64 noundef %21)
          to label %22 unwind label %34

22:                                               ; preds = %18
  br label %29

23:                                               ; preds = %4
  %24 = call noalias noundef nonnull ptr @_Znwm(i64 noundef 72) #28
  store ptr %24, ptr %13, align 8
  store i1 true, ptr %14, align 1
  %25 = load i32, ptr %6, align 4, !tbaa !39
  %26 = sext i32 %25 to i64
  %27 = load i32, ptr %8, align 4, !tbaa !85
  invoke void @_ZN5faiss9IndexFlatC1ElNS_10MetricTypeE(ptr noundef nonnull align 8 dereferenceable(72) %24, i64 noundef %26, i32 noundef %27)
          to label %28 unwind label %42

28:                                               ; preds = %23
  br label %29

29:                                               ; preds = %28, %22
  %30 = phi ptr [ %19, %22 ], [ %24, %28 ]
  %31 = load i32, ptr %7, align 4, !tbaa !39
  call void @_ZN5faiss9IndexHNSWC2EPNS_5IndexEi(ptr noundef nonnull align 8 dereferenceable(5202) %15, ptr noundef %30, i32 noundef %31)
  store ptr getelementptr inbounds inrange(-16, 184) ({ [25 x ptr] }, ptr @_ZTVN5faiss13IndexHNSWFlatE, i32 0, i32 0, i32 2), ptr %15, align 8, !tbaa !40
  %32 = getelementptr inbounds nuw %"struct.faiss::IndexHNSW", ptr %15, i32 0, i32 3
  store i8 1, ptr %32, align 8, !tbaa !77
  %33 = getelementptr inbounds nuw %"struct.faiss::Index", ptr %15, i32 0, i32 5
  store i8 1, ptr %33, align 1, !tbaa !42
  ret void

34:                                               ; preds = %18
  %35 = landingpad { ptr, i32 }
          cleanup
  %36 = extractvalue { ptr, i32 } %35, 0
  store ptr %36, ptr %11, align 8
  %37 = extractvalue { ptr, i32 } %35, 1
  store i32 %37, ptr %12, align 4
  %38 = load i1, ptr %10, align 1
  br i1 %38, label %39, label %41

39:                                               ; preds = %34
  %40 = load ptr, ptr %9, align 8
  call void @_ZdlPvm(ptr noundef %40, i64 noundef 96) #26
  br label %41

41:                                               ; preds = %39, %34
  br label %50

42:                                               ; preds = %23
  %43 = landingpad { ptr, i32 }
          cleanup
  %44 = extractvalue { ptr, i32 } %43, 0
  store ptr %44, ptr %11, align 8
  %45 = extractvalue { ptr, i32 } %43, 1
  store i32 %45, ptr %12, align 4
  %46 = load i1, ptr %14, align 1
  br i1 %46, label %47, label %49

47:                                               ; preds = %42
  %48 = load ptr, ptr %13, align 8
  call void @_ZdlPvm(ptr noundef %48, i64 noundef 72) #26
  br label %49

49:                                               ; preds = %47, %42
  br label %50

50:                                               ; preds = %49, %41
  %51 = load ptr, ptr %11, align 8
  %52 = load i32, ptr %12, align 4
  %53 = insertvalue { ptr, i32 } poison, ptr %51, 0
  %54 = insertvalue { ptr, i32 } %53, i32 %52, 1
  resume { ptr, i32 } %54
}