; Function Attrs: mustprogress uwtable
define void @_ZN5faiss13IndexHNSWFlatC2EiiNS_10MetricTypeE(ptr noundef nonnull align 8 dereferenceable(5202) %0, i32 noundef %1, i32 noundef %2, i32 noundef %3) unnamed_addr #1 align 2 personality ptr @__gxx_personality_v0 {
  %5 = icmp eq i32 %3, 1
  %6 = sext i32 %1 to i64
  br i1 %5, label %7, label %10

7:                                                ; preds = %4
  %8 = tail call noalias noundef nonnull dereferenceable(96) ptr @_Znwm(i64 noundef 96) #31
  invoke void @_ZN5faiss9IndexFlatC2ElNS_10MetricTypeE(ptr noundef nonnull align 8 dereferenceable(96) %8, i64 noundef %6, i32 noundef 1)
          to label %_ZN5faiss11IndexFlatL2C2El.exit unwind label %31

_ZN5faiss11IndexFlatL2C2El.exit:                  ; preds = %7
  store ptr getelementptr inbounds nuw inrange(-16, 192) (i8, ptr @_ZTVN5faiss11IndexFlatL2E, i64 16), ptr %8, align 8, !tbaa !41
  %9 = getelementptr inbounds nuw i8, ptr %8, i64 72
  tail call void @llvm.memset.p0.i64(ptr noundef nonnull align 8 dereferenceable(24) %9, i8 0, i64 24, i1 false)
  br label %12

10:                                               ; preds = %4
  %11 = tail call noalias noundef nonnull dereferenceable(72) ptr @_Znwm(i64 noundef 72) #31
  invoke void @_ZN5faiss9IndexFlatC1ElNS_10MetricTypeE(ptr noundef nonnull align 8 dereferenceable(72) %11, i64 noundef %6, i32 noundef %3)
          to label %12 unwind label %33

12:                                               ; preds = %_ZN5faiss11IndexFlatL2C2El.exit, %10
  %13 = phi ptr [ %8, %_ZN5faiss11IndexFlatL2C2El.exit ], [ %11, %10 ]
  %14 = getelementptr inbounds nuw i8, ptr %13, i64 8
  %15 = load i32, ptr %14, align 8, !tbaa !54
  %16 = getelementptr inbounds nuw i8, ptr %13, i64 28
  %17 = load i32, ptr %16, align 4, !tbaa !98
  %18 = getelementptr inbounds nuw i8, ptr %0, i64 8
  store i32 %15, ptr %18, align 8, !tbaa !54
  %19 = getelementptr inbounds nuw i8, ptr %0, i64 16
  store i64 0, ptr %19, align 8, !tbaa !46
  %20 = getelementptr inbounds nuw i8, ptr %0, i64 24
  store i8 0, ptr %20, align 8, !tbaa !47
  %21 = getelementptr inbounds nuw i8, ptr %0, i64 25
  store i8 1, ptr %21, align 1, !tbaa !43
  %22 = getelementptr inbounds nuw i8, ptr %0, i64 28
  store i32 %17, ptr %22, align 4, !tbaa !98
  %23 = getelementptr inbounds nuw i8, ptr %0, i64 32
  store float 0.000000e+00, ptr %23, align 8, !tbaa !142
  store ptr getelementptr inbounds nuw inrange(-16, 184) (i8, ptr @_ZTVN5faiss9IndexHNSWE, i64 16), ptr %0, align 8, !tbaa !41
  %24 = getelementptr inbounds nuw i8, ptr %0, i64 40
  invoke void @_ZN5faiss4HNSWC1Ei(ptr noundef nonnull align 8 dereferenceable(5142) %24, i32 noundef %2)
          to label %_ZN5faiss9IndexHNSWC2EPNS_5IndexEi.exit unwind label %25

common.resume:                                    ; preds = %31, %33, %25
  %common.resume.op = phi { ptr, i32 } [ %26, %25 ], [ %32, %31 ], [ %34, %33 ]
  resume { ptr, i32 } %common.resume.op

25:                                               ; preds = %12
  %26 = landingpad { ptr, i32 }
          cleanup
  tail call void @_ZN5faiss5IndexD2Ev(ptr noundef nonnull align 8 dereferenceable(5202) %0) #13
  br label %common.resume

_ZN5faiss9IndexHNSWC2EPNS_5IndexEi.exit:          ; preds = %12
  %27 = getelementptr inbounds nuw i8, ptr %0, i64 5184
  %28 = getelementptr inbounds nuw i8, ptr %0, i64 5192
  store ptr %13, ptr %28, align 8, !tbaa !4
  %29 = getelementptr inbounds nuw i8, ptr %0, i64 5200
  store i8 1, ptr %29, align 8, !tbaa !70
  %30 = getelementptr inbounds nuw i8, ptr %0, i64 5201
  store i8 0, ptr %30, align 1, !tbaa !143
  store ptr getelementptr inbounds nuw inrange(-16, 184) (i8, ptr @_ZTVN5faiss13IndexHNSWFlatE, i64 16), ptr %0, align 8, !tbaa !41
  store i8 1, ptr %27, align 8, !tbaa !124
  store i8 1, ptr %21, align 1, !tbaa !43
  ret void

31:                                               ; preds = %7
  %32 = landingpad { ptr, i32 }
          cleanup
  tail call void @_ZdlPvm(ptr noundef nonnull %8, i64 noundef 96) #29
  br label %common.resume

33:                                               ; preds = %10
  %34 = landingpad { ptr, i32 }
          cleanup
  tail call void @_ZdlPvm(ptr noundef nonnull %11, i64 noundef 72) #29
  br label %common.resume
}